
avr bldc.elf:     file format elf32-avr

Sections:
Idx Name          Size      VMA       LMA       File off  Algn
  0 .data         00000018  00800200  00000430  000004c4  2**0
                  CONTENTS, ALLOC, LOAD, DATA
  1 .text         00000430  00000000  00000000  00000094  2**1
                  CONTENTS, ALLOC, LOAD, READONLY, CODE
  2 .bss          00000002  00800218  00800218  000004dc  2**0
                  ALLOC
  3 .comment      00000030  00000000  00000000  000004dc  2**0
                  CONTENTS, READONLY
  4 .note.gnu.avr.deviceinfo 00000040  00000000  00000000  0000050c  2**2
                  CONTENTS, READONLY
  5 .debug_info   00000bbc  00000000  00000000  0000054c  2**0
                  CONTENTS, READONLY, DEBUGGING
  6 .debug_abbrev 00000b1a  00000000  00000000  00001108  2**0
                  CONTENTS, READONLY, DEBUGGING
  7 .debug_line   000001f9  00000000  00000000  00001c22  2**0
                  CONTENTS, READONLY, DEBUGGING
  8 .debug_str    000003e6  00000000  00000000  00001e1b  2**0
                  CONTENTS, READONLY, DEBUGGING

Disassembly of section .text:

00000000 <__vectors>:
   0:	71 c0       	rjmp	.+226    	; 0xe4 <__ctors_end>
   2:	00 00       	nop
   4:	8e c0       	rjmp	.+284    	; 0x122 <__bad_interrupt>
   6:	00 00       	nop
   8:	8c c0       	rjmp	.+280    	; 0x122 <__bad_interrupt>
   a:	00 00       	nop
   c:	8a c0       	rjmp	.+276    	; 0x122 <__bad_interrupt>
   e:	00 00       	nop
  10:	88 c0       	rjmp	.+272    	; 0x122 <__bad_interrupt>
  12:	00 00       	nop
  14:	86 c0       	rjmp	.+268    	; 0x122 <__bad_interrupt>
  16:	00 00       	nop
  18:	84 c0       	rjmp	.+264    	; 0x122 <__bad_interrupt>
  1a:	00 00       	nop
  1c:	82 c0       	rjmp	.+260    	; 0x122 <__bad_interrupt>
  1e:	00 00       	nop
  20:	80 c0       	rjmp	.+256    	; 0x122 <__bad_interrupt>
  22:	00 00       	nop
  24:	7e c0       	rjmp	.+252    	; 0x122 <__bad_interrupt>
  26:	00 00       	nop
  28:	7c c0       	rjmp	.+248    	; 0x122 <__bad_interrupt>
  2a:	00 00       	nop
  2c:	7a c0       	rjmp	.+244    	; 0x122 <__bad_interrupt>
  2e:	00 00       	nop
  30:	78 c0       	rjmp	.+240    	; 0x122 <__bad_interrupt>
  32:	00 00       	nop
  34:	76 c0       	rjmp	.+236    	; 0x122 <__bad_interrupt>
  36:	00 00       	nop
  38:	74 c0       	rjmp	.+232    	; 0x122 <__bad_interrupt>
  3a:	00 00       	nop
  3c:	72 c0       	rjmp	.+228    	; 0x122 <__bad_interrupt>
  3e:	00 00       	nop
  40:	70 c0       	rjmp	.+224    	; 0x122 <__bad_interrupt>
  42:	00 00       	nop
  44:	6e c0       	rjmp	.+220    	; 0x122 <__bad_interrupt>
  46:	00 00       	nop
  48:	6c c0       	rjmp	.+216    	; 0x122 <__bad_interrupt>
  4a:	00 00       	nop
  4c:	6a c0       	rjmp	.+212    	; 0x122 <__bad_interrupt>
  4e:	00 00       	nop
  50:	68 c0       	rjmp	.+208    	; 0x122 <__bad_interrupt>
  52:	00 00       	nop
  54:	66 c0       	rjmp	.+204    	; 0x122 <__bad_interrupt>
  56:	00 00       	nop
  58:	64 c0       	rjmp	.+200    	; 0x122 <__bad_interrupt>
  5a:	00 00       	nop
  5c:	62 c0       	rjmp	.+196    	; 0x122 <__bad_interrupt>
  5e:	00 00       	nop
  60:	60 c0       	rjmp	.+192    	; 0x122 <__bad_interrupt>
  62:	00 00       	nop
  64:	5e c0       	rjmp	.+188    	; 0x122 <__bad_interrupt>
  66:	00 00       	nop
  68:	5c c0       	rjmp	.+184    	; 0x122 <__bad_interrupt>
  6a:	00 00       	nop
  6c:	5a c0       	rjmp	.+180    	; 0x122 <__bad_interrupt>
  6e:	00 00       	nop
  70:	58 c0       	rjmp	.+176    	; 0x122 <__bad_interrupt>
  72:	00 00       	nop
  74:	56 c0       	rjmp	.+172    	; 0x122 <__bad_interrupt>
  76:	00 00       	nop
  78:	54 c0       	rjmp	.+168    	; 0x122 <__bad_interrupt>
  7a:	00 00       	nop
  7c:	52 c0       	rjmp	.+164    	; 0x122 <__bad_interrupt>
  7e:	00 00       	nop
  80:	50 c0       	rjmp	.+160    	; 0x122 <__bad_interrupt>
  82:	00 00       	nop
  84:	4e c0       	rjmp	.+156    	; 0x122 <__bad_interrupt>
  86:	00 00       	nop
  88:	4c c0       	rjmp	.+152    	; 0x122 <__bad_interrupt>
  8a:	00 00       	nop
  8c:	4a c0       	rjmp	.+148    	; 0x122 <__bad_interrupt>
  8e:	00 00       	nop
  90:	48 c0       	rjmp	.+144    	; 0x122 <__bad_interrupt>
  92:	00 00       	nop
  94:	46 c0       	rjmp	.+140    	; 0x122 <__bad_interrupt>
  96:	00 00       	nop
  98:	44 c0       	rjmp	.+136    	; 0x122 <__bad_interrupt>
  9a:	00 00       	nop
  9c:	42 c0       	rjmp	.+132    	; 0x122 <__bad_interrupt>
  9e:	00 00       	nop
  a0:	40 c0       	rjmp	.+128    	; 0x122 <__bad_interrupt>
  a2:	00 00       	nop
  a4:	3e c0       	rjmp	.+124    	; 0x122 <__bad_interrupt>
  a6:	00 00       	nop
  a8:	3c c0       	rjmp	.+120    	; 0x122 <__bad_interrupt>
  aa:	00 00       	nop
  ac:	3a c0       	rjmp	.+116    	; 0x122 <__bad_interrupt>
  ae:	00 00       	nop
  b0:	38 c0       	rjmp	.+112    	; 0x122 <__bad_interrupt>
  b2:	00 00       	nop
  b4:	36 c0       	rjmp	.+108    	; 0x122 <__bad_interrupt>
  b6:	00 00       	nop
  b8:	34 c0       	rjmp	.+104    	; 0x122 <__bad_interrupt>
  ba:	00 00       	nop
  bc:	32 c0       	rjmp	.+100    	; 0x122 <__bad_interrupt>
  be:	00 00       	nop
  c0:	30 c0       	rjmp	.+96     	; 0x122 <__bad_interrupt>
  c2:	00 00       	nop
  c4:	2e c0       	rjmp	.+92     	; 0x122 <__bad_interrupt>
  c6:	00 00       	nop
  c8:	2c c0       	rjmp	.+88     	; 0x122 <__bad_interrupt>
  ca:	00 00       	nop
  cc:	2a c0       	rjmp	.+84     	; 0x122 <__bad_interrupt>
  ce:	00 00       	nop
  d0:	28 c0       	rjmp	.+80     	; 0x122 <__bad_interrupt>
  d2:	00 00       	nop
  d4:	26 c0       	rjmp	.+76     	; 0x122 <__bad_interrupt>
  d6:	00 00       	nop
  d8:	24 c0       	rjmp	.+72     	; 0x122 <__bad_interrupt>
  da:	00 00       	nop
  dc:	22 c0       	rjmp	.+68     	; 0x122 <__bad_interrupt>
  de:	00 00       	nop
  e0:	20 c0       	rjmp	.+64     	; 0x122 <__bad_interrupt>
	...

000000e4 <__ctors_end>:
  e4:	11 24       	eor	r1, r1
  e6:	1f be       	out	0x3f, r1	; 63
  e8:	cf ef       	ldi	r28, 0xFF	; 255
  ea:	d1 e2       	ldi	r29, 0x21	; 33
  ec:	de bf       	out	0x3e, r29	; 62
  ee:	cd bf       	out	0x3d, r28	; 61
  f0:	00 e0       	ldi	r16, 0x00	; 0
  f2:	0c bf       	out	0x3c, r16	; 60

000000f4 <__do_copy_data>:
  f4:	12 e0       	ldi	r17, 0x02	; 2
  f6:	a0 e0       	ldi	r26, 0x00	; 0
  f8:	b2 e0       	ldi	r27, 0x02	; 2
  fa:	e0 e3       	ldi	r30, 0x30	; 48
  fc:	f4 e0       	ldi	r31, 0x04	; 4
  fe:	00 e0       	ldi	r16, 0x00	; 0
 100:	0b bf       	out	0x3b, r16	; 59
 102:	02 c0       	rjmp	.+4      	; 0x108 <__do_copy_data+0x14>
 104:	07 90       	elpm	r0, Z+
 106:	0d 92       	st	X+, r0
 108:	a8 31       	cpi	r26, 0x18	; 24
 10a:	b1 07       	cpc	r27, r17
 10c:	d9 f7       	brne	.-10     	; 0x104 <__do_copy_data+0x10>

0000010e <__do_clear_bss>:
 10e:	22 e0       	ldi	r18, 0x02	; 2
 110:	a8 e1       	ldi	r26, 0x18	; 24
 112:	b2 e0       	ldi	r27, 0x02	; 2
 114:	01 c0       	rjmp	.+2      	; 0x118 <.do_clear_bss_start>

00000116 <.do_clear_bss_loop>:
 116:	1d 92       	st	X+, r1

00000118 <.do_clear_bss_start>:
 118:	aa 31       	cpi	r26, 0x1A	; 26
 11a:	b2 07       	cpc	r27, r18
 11c:	e1 f7       	brne	.-8      	; 0x116 <.do_clear_bss_loop>
 11e:	2b d1       	rcall	.+598    	; 0x376 <main>
 120:	85 c1       	rjmp	.+778    	; 0x42c <_exit>

00000122 <__bad_interrupt>:
 122:	6e cf       	rjmp	.-292    	; 0x0 <__vectors>

00000124 <_ZN8CAvrBldc11enablePhaseE9enumPhase.isra.1>:
 124:	4c b1       	in	r20, 0x0c	; 12
 126:	81 50       	subi	r24, 0x01	; 1
 128:	21 e0       	ldi	r18, 0x01	; 1
 12a:	30 e0       	ldi	r19, 0x00	; 0
 12c:	b9 01       	movw	r22, r18
 12e:	02 c0       	rjmp	.+4      	; 0x134 <_ZN8CAvrBldc11enablePhaseE9enumPhase.isra.1+0x10>
 130:	66 0f       	add	r22, r22
 132:	77 1f       	adc	r23, r23
 134:	8a 95       	dec	r24
 136:	e2 f7       	brpl	.-8      	; 0x130 <_ZN8CAvrBldc11enablePhaseE9enumPhase.isra.1+0xc>
 138:	cb 01       	movw	r24, r22
 13a:	84 2b       	or	r24, r20
 13c:	8c b9       	out	0x0c, r24	; 12
 13e:	08 95       	ret

00000140 <_ZN8CAvrBldc4initEv>:
 140:	8f ef       	ldi	r24, 0xFF	; 255
 142:	8d b9       	out	0x0d, r24	; 13
 144:	14 b8       	out	0x04, r1	; 4
 146:	e1 e9       	ldi	r30, 0x91	; 145
 148:	f0 e0       	ldi	r31, 0x00	; 0
 14a:	80 81       	ld	r24, Z
 14c:	81 60       	ori	r24, 0x01	; 1
 14e:	80 83       	st	Z, r24
 150:	80 81       	ld	r24, Z
 152:	82 60       	ori	r24, 0x02	; 2
 154:	80 83       	st	Z, r24
 156:	a0 e9       	ldi	r26, 0x90	; 144
 158:	b0 e0       	ldi	r27, 0x00	; 0
 15a:	8c 91       	ld	r24, X
 15c:	81 60       	ori	r24, 0x01	; 1
 15e:	8c 93       	st	X, r24
 160:	8c 91       	ld	r24, X
 162:	82 60       	ori	r24, 0x02	; 2
 164:	8c 93       	st	X, r24
 166:	80 81       	ld	r24, Z
 168:	88 60       	ori	r24, 0x08	; 8
 16a:	80 83       	st	Z, r24
 16c:	08 95       	ret

0000016e <_ZN8CAvrBldc7executeEj>:
 16e:	cf 93       	push	r28
 170:	df 93       	push	r29
 172:	eb 01       	movw	r28, r22
 174:	83 b1       	in	r24, 0x03	; 3
 176:	87 70       	andi	r24, 0x07	; 7
 178:	83 30       	cpi	r24, 0x03	; 3
 17a:	09 f4       	brne	.+2      	; 0x17e <_ZN8CAvrBldc7executeEj+0x10>
 17c:	5b c0       	rjmp	.+182    	; 0x234 <_ZN8CAvrBldc7executeEj+0xc6>
 17e:	60 f5       	brcc	.+88     	; 0x1d8 <_ZN8CAvrBldc7executeEj+0x6a>
 180:	81 30       	cpi	r24, 0x01	; 1
 182:	09 f4       	brne	.+2      	; 0x186 <_ZN8CAvrBldc7executeEj+0x18>
 184:	7d c0       	rjmp	.+250    	; 0x280 <_ZN8CAvrBldc7executeEj+0x112>
 186:	82 30       	cpi	r24, 0x02	; 2
 188:	09 f0       	breq	.+2      	; 0x18c <_ZN8CAvrBldc7executeEj+0x1e>
 18a:	ee c0       	rjmp	.+476    	; 0x368 <_ZN8CAvrBldc7executeEj+0x1fa>
 18c:	81 e0       	ldi	r24, 0x01	; 1
 18e:	ca df       	rcall	.-108    	; 0x124 <_ZN8CAvrBldc11enablePhaseE9enumPhase.isra.1>
 190:	80 91 90 00 	lds	r24, 0x0090	; 0x800090 <__TEXT_REGION_LENGTH__+0x700090>
 194:	8f 7b       	andi	r24, 0xBF	; 191
 196:	80 93 90 00 	sts	0x0090, r24	; 0x800090 <__TEXT_REGION_LENGTH__+0x700090>
 19a:	80 91 90 00 	lds	r24, 0x0090	; 0x800090 <__TEXT_REGION_LENGTH__+0x700090>
 19e:	80 68       	ori	r24, 0x80	; 128
 1a0:	80 93 90 00 	sts	0x0090, r24	; 0x800090 <__TEXT_REGION_LENGTH__+0x700090>
 1a4:	61 98       	cbi	0x0c, 1	; 12
 1a6:	80 91 90 00 	lds	r24, 0x0090	; 0x800090 <__TEXT_REGION_LENGTH__+0x700090>
 1aa:	8f 7d       	andi	r24, 0xDF	; 223
 1ac:	80 93 90 00 	sts	0x0090, r24	; 0x800090 <__TEXT_REGION_LENGTH__+0x700090>
 1b0:	80 91 90 00 	lds	r24, 0x0090	; 0x800090 <__TEXT_REGION_LENGTH__+0x700090>
 1b4:	8f 7e       	andi	r24, 0xEF	; 239
 1b6:	80 93 90 00 	sts	0x0090, r24	; 0x800090 <__TEXT_REGION_LENGTH__+0x700090>
 1ba:	83 e0       	ldi	r24, 0x03	; 3
 1bc:	b3 df       	rcall	.-154    	; 0x124 <_ZN8CAvrBldc11enablePhaseE9enumPhase.isra.1>
 1be:	80 91 90 00 	lds	r24, 0x0090	; 0x800090 <__TEXT_REGION_LENGTH__+0x700090>
 1c2:	8b 7f       	andi	r24, 0xFB	; 251
 1c4:	80 93 90 00 	sts	0x0090, r24	; 0x800090 <__TEXT_REGION_LENGTH__+0x700090>
 1c8:	80 91 90 00 	lds	r24, 0x0090	; 0x800090 <__TEXT_REGION_LENGTH__+0x700090>
 1cc:	88 60       	ori	r24, 0x08	; 8
 1ce:	80 93 90 00 	sts	0x0090, r24	; 0x800090 <__TEXT_REGION_LENGTH__+0x700090>
 1d2:	64 e1       	ldi	r22, 0x14	; 20
 1d4:	72 e0       	ldi	r23, 0x02	; 2
 1d6:	c5 c0       	rjmp	.+394    	; 0x362 <_ZN8CAvrBldc7executeEj+0x1f4>
 1d8:	85 30       	cpi	r24, 0x05	; 5
 1da:	09 f4       	brne	.+2      	; 0x1de <_ZN8CAvrBldc7executeEj+0x70>
 1dc:	77 c0       	rjmp	.+238    	; 0x2cc <_ZN8CAvrBldc7executeEj+0x15e>
 1de:	08 f4       	brcc	.+2      	; 0x1e2 <_ZN8CAvrBldc7executeEj+0x74>
 1e0:	9b c0       	rjmp	.+310    	; 0x318 <_ZN8CAvrBldc7executeEj+0x1aa>
 1e2:	86 30       	cpi	r24, 0x06	; 6
 1e4:	09 f0       	breq	.+2      	; 0x1e8 <_ZN8CAvrBldc7executeEj+0x7a>
 1e6:	c0 c0       	rjmp	.+384    	; 0x368 <_ZN8CAvrBldc7executeEj+0x1fa>
 1e8:	81 e0       	ldi	r24, 0x01	; 1
 1ea:	9c df       	rcall	.-200    	; 0x124 <_ZN8CAvrBldc11enablePhaseE9enumPhase.isra.1>
 1ec:	80 91 90 00 	lds	r24, 0x0090	; 0x800090 <__TEXT_REGION_LENGTH__+0x700090>
 1f0:	8f 7b       	andi	r24, 0xBF	; 191
 1f2:	80 93 90 00 	sts	0x0090, r24	; 0x800090 <__TEXT_REGION_LENGTH__+0x700090>
 1f6:	80 91 90 00 	lds	r24, 0x0090	; 0x800090 <__TEXT_REGION_LENGTH__+0x700090>
 1fa:	80 68       	ori	r24, 0x80	; 128
 1fc:	80 93 90 00 	sts	0x0090, r24	; 0x800090 <__TEXT_REGION_LENGTH__+0x700090>
 200:	82 e0       	ldi	r24, 0x02	; 2
 202:	90 df       	rcall	.-224    	; 0x124 <_ZN8CAvrBldc11enablePhaseE9enumPhase.isra.1>
 204:	80 91 90 00 	lds	r24, 0x0090	; 0x800090 <__TEXT_REGION_LENGTH__+0x700090>
 208:	80 62       	ori	r24, 0x20	; 32
 20a:	80 93 90 00 	sts	0x0090, r24	; 0x800090 <__TEXT_REGION_LENGTH__+0x700090>
 20e:	80 91 90 00 	lds	r24, 0x0090	; 0x800090 <__TEXT_REGION_LENGTH__+0x700090>
 212:	80 61       	ori	r24, 0x10	; 16
 214:	80 93 90 00 	sts	0x0090, r24	; 0x800090 <__TEXT_REGION_LENGTH__+0x700090>
 218:	62 98       	cbi	0x0c, 2	; 12
 21a:	80 91 90 00 	lds	r24, 0x0090	; 0x800090 <__TEXT_REGION_LENGTH__+0x700090>
 21e:	87 7f       	andi	r24, 0xF7	; 247
 220:	80 93 90 00 	sts	0x0090, r24	; 0x800090 <__TEXT_REGION_LENGTH__+0x700090>
 224:	80 91 90 00 	lds	r24, 0x0090	; 0x800090 <__TEXT_REGION_LENGTH__+0x700090>
 228:	8b 7f       	andi	r24, 0xFB	; 251
 22a:	80 93 90 00 	sts	0x0090, r24	; 0x800090 <__TEXT_REGION_LENGTH__+0x700090>
 22e:	60 e1       	ldi	r22, 0x10	; 16
 230:	72 e0       	ldi	r23, 0x02	; 2
 232:	97 c0       	rjmp	.+302    	; 0x362 <_ZN8CAvrBldc7executeEj+0x1f4>
 234:	60 98       	cbi	0x0c, 0	; 12
 236:	80 91 90 00 	lds	r24, 0x0090	; 0x800090 <__TEXT_REGION_LENGTH__+0x700090>
 23a:	8f 77       	andi	r24, 0x7F	; 127
 23c:	80 93 90 00 	sts	0x0090, r24	; 0x800090 <__TEXT_REGION_LENGTH__+0x700090>
 240:	80 91 90 00 	lds	r24, 0x0090	; 0x800090 <__TEXT_REGION_LENGTH__+0x700090>
 244:	8f 7b       	andi	r24, 0xBF	; 191
 246:	80 93 90 00 	sts	0x0090, r24	; 0x800090 <__TEXT_REGION_LENGTH__+0x700090>
 24a:	82 e0       	ldi	r24, 0x02	; 2
 24c:	6b df       	rcall	.-298    	; 0x124 <_ZN8CAvrBldc11enablePhaseE9enumPhase.isra.1>
 24e:	80 91 90 00 	lds	r24, 0x0090	; 0x800090 <__TEXT_REGION_LENGTH__+0x700090>
 252:	8f 7e       	andi	r24, 0xEF	; 239
 254:	80 93 90 00 	sts	0x0090, r24	; 0x800090 <__TEXT_REGION_LENGTH__+0x700090>
 258:	80 91 90 00 	lds	r24, 0x0090	; 0x800090 <__TEXT_REGION_LENGTH__+0x700090>
 25c:	80 62       	ori	r24, 0x20	; 32
 25e:	80 93 90 00 	sts	0x0090, r24	; 0x800090 <__TEXT_REGION_LENGTH__+0x700090>
 262:	83 e0       	ldi	r24, 0x03	; 3
 264:	5f df       	rcall	.-322    	; 0x124 <_ZN8CAvrBldc11enablePhaseE9enumPhase.isra.1>
 266:	80 91 90 00 	lds	r24, 0x0090	; 0x800090 <__TEXT_REGION_LENGTH__+0x700090>
 26a:	88 60       	ori	r24, 0x08	; 8
 26c:	80 93 90 00 	sts	0x0090, r24	; 0x800090 <__TEXT_REGION_LENGTH__+0x700090>
 270:	80 91 90 00 	lds	r24, 0x0090	; 0x800090 <__TEXT_REGION_LENGTH__+0x700090>
 274:	84 60       	ori	r24, 0x04	; 4
 276:	80 93 90 00 	sts	0x0090, r24	; 0x800090 <__TEXT_REGION_LENGTH__+0x700090>
 27a:	60 e0       	ldi	r22, 0x00	; 0
 27c:	72 e0       	ldi	r23, 0x02	; 2
 27e:	71 c0       	rjmp	.+226    	; 0x362 <_ZN8CAvrBldc7executeEj+0x1f4>
 280:	81 e0       	ldi	r24, 0x01	; 1
 282:	50 df       	rcall	.-352    	; 0x124 <_ZN8CAvrBldc11enablePhaseE9enumPhase.isra.1>
 284:	80 91 90 00 	lds	r24, 0x0090	; 0x800090 <__TEXT_REGION_LENGTH__+0x700090>
 288:	80 68       	ori	r24, 0x80	; 128
 28a:	80 93 90 00 	sts	0x0090, r24	; 0x800090 <__TEXT_REGION_LENGTH__+0x700090>
 28e:	80 91 90 00 	lds	r24, 0x0090	; 0x800090 <__TEXT_REGION_LENGTH__+0x700090>
 292:	80 64       	ori	r24, 0x40	; 64
 294:	80 93 90 00 	sts	0x0090, r24	; 0x800090 <__TEXT_REGION_LENGTH__+0x700090>
 298:	82 e0       	ldi	r24, 0x02	; 2
 29a:	44 df       	rcall	.-376    	; 0x124 <_ZN8CAvrBldc11enablePhaseE9enumPhase.isra.1>
 29c:	80 91 90 00 	lds	r24, 0x0090	; 0x800090 <__TEXT_REGION_LENGTH__+0x700090>
 2a0:	8f 7e       	andi	r24, 0xEF	; 239
 2a2:	80 93 90 00 	sts	0x0090, r24	; 0x800090 <__TEXT_REGION_LENGTH__+0x700090>
 2a6:	80 91 90 00 	lds	r24, 0x0090	; 0x800090 <__TEXT_REGION_LENGTH__+0x700090>
 2aa:	80 62       	ori	r24, 0x20	; 32
 2ac:	80 93 90 00 	sts	0x0090, r24	; 0x800090 <__TEXT_REGION_LENGTH__+0x700090>
 2b0:	62 98       	cbi	0x0c, 2	; 12
 2b2:	80 91 90 00 	lds	r24, 0x0090	; 0x800090 <__TEXT_REGION_LENGTH__+0x700090>
 2b6:	87 7f       	andi	r24, 0xF7	; 247
 2b8:	80 93 90 00 	sts	0x0090, r24	; 0x800090 <__TEXT_REGION_LENGTH__+0x700090>
 2bc:	80 91 90 00 	lds	r24, 0x0090	; 0x800090 <__TEXT_REGION_LENGTH__+0x700090>
 2c0:	8b 7f       	andi	r24, 0xFB	; 251
 2c2:	80 93 90 00 	sts	0x0090, r24	; 0x800090 <__TEXT_REGION_LENGTH__+0x700090>
 2c6:	64 e0       	ldi	r22, 0x04	; 4
 2c8:	72 e0       	ldi	r23, 0x02	; 2
 2ca:	4b c0       	rjmp	.+150    	; 0x362 <_ZN8CAvrBldc7executeEj+0x1f4>
 2cc:	81 e0       	ldi	r24, 0x01	; 1
 2ce:	2a df       	rcall	.-428    	; 0x124 <_ZN8CAvrBldc11enablePhaseE9enumPhase.isra.1>
 2d0:	80 91 90 00 	lds	r24, 0x0090	; 0x800090 <__TEXT_REGION_LENGTH__+0x700090>
 2d4:	80 68       	ori	r24, 0x80	; 128
 2d6:	80 93 90 00 	sts	0x0090, r24	; 0x800090 <__TEXT_REGION_LENGTH__+0x700090>
 2da:	80 91 90 00 	lds	r24, 0x0090	; 0x800090 <__TEXT_REGION_LENGTH__+0x700090>
 2de:	80 64       	ori	r24, 0x40	; 64
 2e0:	80 93 90 00 	sts	0x0090, r24	; 0x800090 <__TEXT_REGION_LENGTH__+0x700090>
 2e4:	61 98       	cbi	0x0c, 1	; 12
 2e6:	80 91 90 00 	lds	r24, 0x0090	; 0x800090 <__TEXT_REGION_LENGTH__+0x700090>
 2ea:	8f 7d       	andi	r24, 0xDF	; 223
 2ec:	80 93 90 00 	sts	0x0090, r24	; 0x800090 <__TEXT_REGION_LENGTH__+0x700090>
 2f0:	80 91 90 00 	lds	r24, 0x0090	; 0x800090 <__TEXT_REGION_LENGTH__+0x700090>
 2f4:	8f 7e       	andi	r24, 0xEF	; 239
 2f6:	80 93 90 00 	sts	0x0090, r24	; 0x800090 <__TEXT_REGION_LENGTH__+0x700090>
 2fa:	83 e0       	ldi	r24, 0x03	; 3
 2fc:	13 df       	rcall	.-474    	; 0x124 <_ZN8CAvrBldc11enablePhaseE9enumPhase.isra.1>
 2fe:	80 91 90 00 	lds	r24, 0x0090	; 0x800090 <__TEXT_REGION_LENGTH__+0x700090>
 302:	8b 7f       	andi	r24, 0xFB	; 251
 304:	80 93 90 00 	sts	0x0090, r24	; 0x800090 <__TEXT_REGION_LENGTH__+0x700090>
 308:	80 91 90 00 	lds	r24, 0x0090	; 0x800090 <__TEXT_REGION_LENGTH__+0x700090>
 30c:	88 60       	ori	r24, 0x08	; 8
 30e:	80 93 90 00 	sts	0x0090, r24	; 0x800090 <__TEXT_REGION_LENGTH__+0x700090>
 312:	68 e0       	ldi	r22, 0x08	; 8
 314:	72 e0       	ldi	r23, 0x02	; 2
 316:	25 c0       	rjmp	.+74     	; 0x362 <_ZN8CAvrBldc7executeEj+0x1f4>
 318:	60 98       	cbi	0x0c, 0	; 12
 31a:	80 91 90 00 	lds	r24, 0x0090	; 0x800090 <__TEXT_REGION_LENGTH__+0x700090>
 31e:	8f 77       	andi	r24, 0x7F	; 127
 320:	80 93 90 00 	sts	0x0090, r24	; 0x800090 <__TEXT_REGION_LENGTH__+0x700090>
 324:	80 91 90 00 	lds	r24, 0x0090	; 0x800090 <__TEXT_REGION_LENGTH__+0x700090>
 328:	8f 7b       	andi	r24, 0xBF	; 191
 32a:	80 93 90 00 	sts	0x0090, r24	; 0x800090 <__TEXT_REGION_LENGTH__+0x700090>
 32e:	82 e0       	ldi	r24, 0x02	; 2
 330:	f9 de       	rcall	.-526    	; 0x124 <_ZN8CAvrBldc11enablePhaseE9enumPhase.isra.1>
 332:	80 91 90 00 	lds	r24, 0x0090	; 0x800090 <__TEXT_REGION_LENGTH__+0x700090>
 336:	80 62       	ori	r24, 0x20	; 32
 338:	80 93 90 00 	sts	0x0090, r24	; 0x800090 <__TEXT_REGION_LENGTH__+0x700090>
 33c:	80 91 90 00 	lds	r24, 0x0090	; 0x800090 <__TEXT_REGION_LENGTH__+0x700090>
 340:	80 61       	ori	r24, 0x10	; 16
 342:	80 93 90 00 	sts	0x0090, r24	; 0x800090 <__TEXT_REGION_LENGTH__+0x700090>
 346:	83 e0       	ldi	r24, 0x03	; 3
 348:	ed de       	rcall	.-550    	; 0x124 <_ZN8CAvrBldc11enablePhaseE9enumPhase.isra.1>
 34a:	80 91 90 00 	lds	r24, 0x0090	; 0x800090 <__TEXT_REGION_LENGTH__+0x700090>
 34e:	8b 7f       	andi	r24, 0xFB	; 251
 350:	80 93 90 00 	sts	0x0090, r24	; 0x800090 <__TEXT_REGION_LENGTH__+0x700090>
 354:	80 91 90 00 	lds	r24, 0x0090	; 0x800090 <__TEXT_REGION_LENGTH__+0x700090>
 358:	88 60       	ori	r24, 0x08	; 8
 35a:	80 93 90 00 	sts	0x0090, r24	; 0x800090 <__TEXT_REGION_LENGTH__+0x700090>
 35e:	6c e0       	ldi	r22, 0x0C	; 12
 360:	72 e0       	ldi	r23, 0x02	; 2
 362:	89 e1       	ldi	r24, 0x19	; 25
 364:	92 e0       	ldi	r25, 0x02	; 2
 366:	33 d0       	rcall	.+102    	; 0x3ce <_ZN7CSerial5printEPKc>
 368:	d0 93 99 00 	sts	0x0099, r29	; 0x800099 <__TEXT_REGION_LENGTH__+0x700099>
 36c:	c0 93 98 00 	sts	0x0098, r28	; 0x800098 <__TEXT_REGION_LENGTH__+0x700098>
 370:	df 91       	pop	r29
 372:	cf 91       	pop	r28
 374:	08 95       	ret

00000376 <main>:
 376:	40 e0       	ldi	r20, 0x00	; 0
 378:	51 ee       	ldi	r21, 0xE1	; 225
 37a:	60 e0       	ldi	r22, 0x00	; 0
 37c:	70 e0       	ldi	r23, 0x00	; 0
 37e:	89 e1       	ldi	r24, 0x19	; 25
 380:	92 e0       	ldi	r25, 0x02	; 2
 382:	09 d0       	rcall	.+18     	; 0x396 <_ZN7CSerial4initEm>
 384:	88 e1       	ldi	r24, 0x18	; 24
 386:	92 e0       	ldi	r25, 0x02	; 2
 388:	db de       	rcall	.-586    	; 0x140 <_ZN8CAvrBldc4initEv>
 38a:	62 e4       	ldi	r22, 0x42	; 66
 38c:	71 e0       	ldi	r23, 0x01	; 1
 38e:	88 e1       	ldi	r24, 0x18	; 24
 390:	92 e0       	ldi	r25, 0x02	; 2
 392:	ed de       	rcall	.-550    	; 0x16e <_ZN8CAvrBldc7executeEj>
 394:	fa cf       	rjmp	.-12     	; 0x38a <main+0x14>

00000396 <_ZN7CSerial4initEm>:
 396:	e9 ec       	ldi	r30, 0xC9	; 201
 398:	f0 e0       	ldi	r31, 0x00	; 0
 39a:	80 81       	ld	r24, Z
 39c:	88 60       	ori	r24, 0x08	; 8
 39e:	80 83       	st	Z, r24
 3a0:	9a 01       	movw	r18, r20
 3a2:	ab 01       	movw	r20, r22
 3a4:	84 e0       	ldi	r24, 0x04	; 4
 3a6:	22 0f       	add	r18, r18
 3a8:	33 1f       	adc	r19, r19
 3aa:	44 1f       	adc	r20, r20
 3ac:	55 1f       	adc	r21, r21
 3ae:	8a 95       	dec	r24
 3b0:	d1 f7       	brne	.-12     	; 0x3a6 <_ZN7CSerial4initEm+0x10>
 3b2:	60 e0       	ldi	r22, 0x00	; 0
 3b4:	74 e2       	ldi	r23, 0x24	; 36
 3b6:	84 ef       	ldi	r24, 0xF4	; 244
 3b8:	90 e0       	ldi	r25, 0x00	; 0
 3ba:	16 d0       	rcall	.+44     	; 0x3e8 <__udivmodsi4>
 3bc:	21 50       	subi	r18, 0x01	; 1
 3be:	31 09       	sbc	r19, r1
 3c0:	83 2f       	mov	r24, r19
 3c2:	8f 70       	andi	r24, 0x0F	; 15
 3c4:	80 93 cd 00 	sts	0x00CD, r24	; 0x8000cd <__TEXT_REGION_LENGTH__+0x7000cd>
 3c8:	20 93 cc 00 	sts	0x00CC, r18	; 0x8000cc <__TEXT_REGION_LENGTH__+0x7000cc>
 3cc:	08 95       	ret

000003ce <_ZN7CSerial5printEPKc>:
 3ce:	fb 01       	movw	r30, r22
 3d0:	81 91       	ld	r24, Z+
 3d2:	bf 01       	movw	r22, r30
 3d4:	88 23       	and	r24, r24
 3d6:	39 f0       	breq	.+14     	; 0x3e6 <_ZN7CSerial5printEPKc+0x18>
 3d8:	90 91 c8 00 	lds	r25, 0x00C8	; 0x8000c8 <__TEXT_REGION_LENGTH__+0x7000c8>
 3dc:	95 ff       	sbrs	r25, 5
 3de:	fc cf       	rjmp	.-8      	; 0x3d8 <_ZN7CSerial5printEPKc+0xa>
 3e0:	80 93 ce 00 	sts	0x00CE, r24	; 0x8000ce <__TEXT_REGION_LENGTH__+0x7000ce>
 3e4:	f4 cf       	rjmp	.-24     	; 0x3ce <_ZN7CSerial5printEPKc>
 3e6:	08 95       	ret

000003e8 <__udivmodsi4>:
 3e8:	a1 e2       	ldi	r26, 0x21	; 33
 3ea:	1a 2e       	mov	r1, r26
 3ec:	aa 1b       	sub	r26, r26
 3ee:	bb 1b       	sub	r27, r27
 3f0:	fd 01       	movw	r30, r26
 3f2:	0d c0       	rjmp	.+26     	; 0x40e <__udivmodsi4_ep>

000003f4 <__udivmodsi4_loop>:
 3f4:	aa 1f       	adc	r26, r26
 3f6:	bb 1f       	adc	r27, r27
 3f8:	ee 1f       	adc	r30, r30
 3fa:	ff 1f       	adc	r31, r31
 3fc:	a2 17       	cp	r26, r18
 3fe:	b3 07       	cpc	r27, r19
 400:	e4 07       	cpc	r30, r20
 402:	f5 07       	cpc	r31, r21
 404:	20 f0       	brcs	.+8      	; 0x40e <__udivmodsi4_ep>
 406:	a2 1b       	sub	r26, r18
 408:	b3 0b       	sbc	r27, r19
 40a:	e4 0b       	sbc	r30, r20
 40c:	f5 0b       	sbc	r31, r21

0000040e <__udivmodsi4_ep>:
 40e:	66 1f       	adc	r22, r22
 410:	77 1f       	adc	r23, r23
 412:	88 1f       	adc	r24, r24
 414:	99 1f       	adc	r25, r25
 416:	1a 94       	dec	r1
 418:	69 f7       	brne	.-38     	; 0x3f4 <__udivmodsi4_loop>
 41a:	60 95       	com	r22
 41c:	70 95       	com	r23
 41e:	80 95       	com	r24
 420:	90 95       	com	r25
 422:	9b 01       	movw	r18, r22
 424:	ac 01       	movw	r20, r24
 426:	bd 01       	movw	r22, r26
 428:	cf 01       	movw	r24, r30
 42a:	08 95       	ret

0000042c <_exit>:
 42c:	f8 94       	cli

0000042e <__stop_program>:
 42e:	ff cf       	rjmp	.-2      	; 0x42e <__stop_program>
